target datalayout = "e-m:e-p270:32:32-p271:32:32-p272:64:64-i64:64-i128:128-f80:128-n8:16:32:64-S128"
target triple = "x86_64-pc-linux-gnu"

; Function Attrs: nounwind uwtable
define hidden i64 @mbedtls_mpi_core_montmul_init(ptr noundef %0) #0 {
  %2 = alloca ptr, align 8
  %3 = alloca i64, align 8
  %4 = alloca i32, align 4
  store ptr %0, ptr %2, align 8, !tbaa !7
  call void @llvm.lifetime.start.p0(i64 8, ptr %3) #7
  %5 = load ptr, ptr %2, align 8, !tbaa !7
  %6 = getelementptr inbounds i64, ptr %5, i64 0
  %7 = load i64, ptr %6, align 8, !tbaa !3
  store i64 %7, ptr %3, align 8, !tbaa !3
  %8 = load ptr, ptr %2, align 8, !tbaa !7
  %9 = getelementptr inbounds i64, ptr %8, i64 0
  %10 = load i64, ptr %9, align 8, !tbaa !3
  %11 = add i64 %10, 2
  %12 = and i64 %11, 4
  %13 = shl i64 %12, 1
  %14 = load i64, ptr %3, align 8, !tbaa !3
  %15 = add i64 %14, %13
  store i64 %15, ptr %3, align 8, !tbaa !3
  call void @llvm.lifetime.start.p0(i64 4, ptr %4) #7
  store i32 64, ptr %4, align 4, !tbaa !10
  br label %16

16:                                               ; preds = %29, %1
  %17 = load i32, ptr %4, align 4, !tbaa !10
  %18 = icmp uge i32 %17, 8
  br i1 %18, label %20, label %19

19:                                               ; preds = %16
  call void @llvm.lifetime.end.p0(i64 4, ptr %4) #7
  br label %32

20:                                               ; preds = %16
  %21 = load ptr, ptr %2, align 8, !tbaa !7
  %22 = getelementptr inbounds i64, ptr %21, i64 0
  %23 = load i64, ptr %22, align 8, !tbaa !3
  %24 = load i64, ptr %3, align 8, !tbaa !3
  %25 = mul i64 %23, %24
  %26 = sub i64 2, %25
  %27 = load i64, ptr %3, align 8, !tbaa !3
  %28 = mul i64 %27, %26
  store i64 %28, ptr %3, align 8, !tbaa !3
  br label %29

29:                                               ; preds = %20
  %30 = load i32, ptr %4, align 4, !tbaa !10
  %31 = udiv i32 %30, 2
  store i32 %31, ptr %4, align 4, !tbaa !10
  br label %16, !llvm.loop !45

32:                                               ; preds = %19
  %33 = load i64, ptr %3, align 8, !tbaa !3
  %34 = xor i64 %33, -1
  %35 = add i64 %34, 1
  call void @llvm.lifetime.end.p0(i64 8, ptr %3) #7
  ret i64 %35
}