; Function Attrs: nofree norecurse nosync nounwind memory(argmem: read) uwtable
define hidden i64 @mbedtls_mpi_core_montmul_init(ptr noundef readonly captures(none) %0) local_unnamed_addr #2 {
  %2 = load i64, ptr %0, align 8, !tbaa !3
  %3 = shl i64 %2, 1
  %4 = add i64 %3, 4
  %5 = and i64 %4, 8
  %6 = add i64 %5, %2
  br label %9

7:                                                ; preds = %9
  %8 = sub i64 0, %12
  ret i64 %8

9:                                                ; preds = %1, %9
  %.010 = phi i32 [ 64, %1 ], [ %13, %9 ]
  %.089 = phi i64 [ %6, %1 ], [ %12, %9 ]
  %10 = mul i64 %.089, %2
  %11 = sub i64 2, %10
  %12 = mul i64 %11, %.089
  %13 = lshr i32 %.010, 1
  %14 = icmp samesign ugt i32 %.010, 15
  br i1 %14, label %9, label %7, !llvm.loop !37
}